; ModuleID = '14/1381.c'
source_filename = "14/1381.c"
target datalayout = "e-m:e-p270:32:32-p271:32:32-p272:64:64-i64:64-f80:128-n8:16:32:64-S128"
target triple = "x86_64-pc-linux-gnu"

%struct.anon = type { i32, i32, i32 }

@.str = private unnamed_addr constant [3 x i8] c"%d\00", align 1
@.str.1 = private unnamed_addr constant [7 x i8] c"%d%d%d\00", align 1
@student = common dso_local global [1000000 x %struct.anon] zeroinitializer, align 16
@.str.2 = private unnamed_addr constant [7 x i8] c"%d %d\0A\00", align 1

; Function Attrs: noinline nounwind uwtable
define dso_local i32 @main(i32 %0, i8** %1) #0 {
  %3 = alloca i32, align 4
  %4 = alloca i32, align 4
  %5 = alloca i8**, align 8
  %6 = alloca i32, align 4
  %7 = alloca i32, align 4
  %8 = alloca i32, align 4
  %9 = alloca [1000000 x i32], align 16
  store i32 0, i32* %3, align 4
  store i32 %0, i32* %4, align 4
  store i8** %1, i8*** %5, align 8
  store i32 0, i32* %6, align 4
  %10 = call i32 (i8*, ...) @__isoc99_scanf(i8* getelementptr inbounds ([3 x i8], [3 x i8]* @.str, i64 0, i64 0), i32* %6)
  store i32 0, i32* %7, align 4
  store i32 0, i32* %8, align 4
  store i32 0, i32* %7, align 4
  br label %11

11:                                               ; preds = %43, %2
  %12 = load i32, i32* %7, align 4
  %13 = load i32, i32* %6, align 4
  %14 = icmp slt i32 %12, %13
  br i1 %14, label %15, label %46

15:                                               ; preds = %11
  %16 = load i32, i32* %7, align 4
  %17 = sext i32 %16 to i64
  %18 = getelementptr inbounds [1000000 x %struct.anon], [1000000 x %struct.anon]* @student, i64 0, i64 %17
  %19 = getelementptr inbounds %struct.anon, %struct.anon* %18, i32 0, i32 0
  %20 = load i32, i32* %7, align 4
  %21 = sext i32 %20 to i64
  %22 = getelementptr inbounds [1000000 x %struct.anon], [1000000 x %struct.anon]* @student, i64 0, i64 %21
  %23 = getelementptr inbounds %struct.anon, %struct.anon* %22, i32 0, i32 1
  %24 = load i32, i32* %7, align 4
  %25 = sext i32 %24 to i64
  %26 = getelementptr inbounds [1000000 x %struct.anon], [1000000 x %struct.anon]* @student, i64 0, i64 %25
  %27 = getelementptr inbounds %struct.anon, %struct.anon* %26, i32 0, i32 2
  %28 = call i32 (i8*, ...) @__isoc99_scanf(i8* getelementptr inbounds ([7 x i8], [7 x i8]* @.str.1, i64 0, i64 0), i32* %19, i32* %23, i32* %27)
  %29 = load i32, i32* %7, align 4
  %30 = sext i32 %29 to i64
  %31 = getelementptr inbounds [1000000 x %struct.anon], [1000000 x %struct.anon]* @student, i64 0, i64 %30
  %32 = getelementptr inbounds %struct.anon, %struct.anon* %31, i32 0, i32 1
  %33 = load i32, i32* %32, align 4
  %34 = load i32, i32* %7, align 4
  %35 = sext i32 %34 to i64
  %36 = getelementptr inbounds [1000000 x %struct.anon], [1000000 x %struct.anon]* @student, i64 0, i64 %35
  %37 = getelementptr inbounds %struct.anon, %struct.anon* %36, i32 0, i32 2
  %38 = load i32, i32* %37, align 4
  %39 = add nsw i32 %33, %38
  %40 = load i32, i32* %7, align 4
  %41 = sext i32 %40 to i64
  %42 = getelementptr inbounds [1000000 x i32], [1000000 x i32]* %9, i64 0, i64 %41
  store i32 %39, i32* %42, align 4
  br label %43

43:                                               ; preds = %15
  %44 = load i32, i32* %7, align 4
  %45 = add nsw i32 %44, 1
  store i32 %45, i32* %7, align 4
  br label %11

46:                                               ; preds = %11
  store i32 0, i32* %7, align 4
  br label %47

47:                                               ; preds = %109, %46
  %48 = load i32, i32* %7, align 4
  %49 = icmp slt i32 %48, 3
  br i1 %49, label %50, label %112

50:                                               ; preds = %47
  %51 = load i32, i32* %6, align 4
  %52 = sub nsw i32 %51, 1
  store i32 %52, i32* %8, align 4
  br label %53

53:                                               ; preds = %105, %50
  %54 = load i32, i32* %8, align 4
  %55 = load i32, i32* %7, align 4
  %56 = add nsw i32 0, %55
  %57 = icmp sgt i32 %54, %56
  br i1 %57, label %58, label %108

58:                                               ; preds = %53
  %59 = load i32, i32* %8, align 4
  %60 = sext i32 %59 to i64
  %61 = getelementptr inbounds [1000000 x i32], [1000000 x i32]* %9, i64 0, i64 %60
  %62 = load i32, i32* %61, align 4
  %63 = load i32, i32* %8, align 4
  %64 = sub nsw i32 %63, 1
  %65 = sext i32 %64 to i64
  %66 = getelementptr inbounds [1000000 x i32], [1000000 x i32]* %9, i64 0, i64 %65
  %67 = load i32, i32* %66, align 4
  %68 = icmp sgt i32 %62, %67
  br i1 %68, label %69, label %104

69:                                               ; preds = %58
  %70 = load i32, i32* %8, align 4
  %71 = sext i32 %70 to i64
  %72 = getelementptr inbounds [1000000 x i32], [1000000 x i32]* %9, i64 0, i64 %71
  %73 = load i32, i32* %8, align 4
  %74 = sub nsw i32 %73, 1
  %75 = sext i32 %74 to i64
  %76 = getelementptr inbounds [1000000 x i32], [1000000 x i32]* %9, i64 0, i64 %75
  call void @swap(i32* %72, i32* %76)
  %77 = load i32, i32* %8, align 4
  %78 = sub nsw i32 %77, 1
  %79 = sext i32 %78 to i64
  %80 = getelementptr inbounds [1000000 x %struct.anon], [1000000 x %struct.anon]* @student, i64 0, i64 %79
  %81 = getelementptr inbounds %struct.anon, %struct.anon* %80, i32 0, i32 0
  %82 = load i32, i32* %8, align 4
  %83 = sext i32 %82 to i64
  %84 = getelementptr inbounds [1000000 x %struct.anon], [1000000 x %struct.anon]* @student, i64 0, i64 %83
  %85 = getelementptr inbounds %struct.anon, %struct.anon* %84, i32 0, i32 0
  call void @swap(i32* %81, i32* %85)
  %86 = load i32, i32* %8, align 4
  %87 = sub nsw i32 %86, 1
  %88 = sext i32 %87 to i64
  %89 = getelementptr inbounds [1000000 x %struct.anon], [1000000 x %struct.anon]* @student, i64 0, i64 %88
  %90 = getelementptr inbounds %struct.anon, %struct.anon* %89, i32 0, i32 1
  %91 = load i32, i32* %8, align 4
  %92 = sext i32 %91 to i64
  %93 = getelementptr inbounds [1000000 x %struct.anon], [1000000 x %struct.anon]* @student, i64 0, i64 %92
  %94 = getelementptr inbounds %struct.anon, %struct.anon* %93, i32 0, i32 1
  call void @swap(i32* %90, i32* %94)
  %95 = load i32, i32* %8, align 4
  %96 = sub nsw i32 %95, 1
  %97 = sext i32 %96 to i64
  %98 = getelementptr inbounds [1000000 x %struct.anon], [1000000 x %struct.anon]* @student, i64 0, i64 %97
  %99 = getelementptr inbounds %struct.anon, %struct.anon* %98, i32 0, i32 2
  %100 = load i32, i32* %8, align 4
  %101 = sext i32 %100 to i64
  %102 = getelementptr inbounds [1000000 x %struct.anon], [1000000 x %struct.anon]* @student, i64 0, i64 %101
  %103 = getelementptr inbounds %struct.anon, %struct.anon* %102, i32 0, i32 2
  call void @swap(i32* %99, i32* %103)
  br label %104

104:                                              ; preds = %69, %58
  br label %105

105:                                              ; preds = %104
  %106 = load i32, i32* %8, align 4
  %107 = add nsw i32 %106, -1
  store i32 %107, i32* %8, align 4
  br label %53

108:                                              ; preds = %53
  br label %109

109:                                              ; preds = %108
  %110 = load i32, i32* %7, align 4
  %111 = add nsw i32 %110, 1
  store i32 %111, i32* %7, align 4
  br label %47

112:                                              ; preds = %47
  store i32 0, i32* %7, align 4
  br label %113

113:                                              ; preds = %127, %112
  %114 = load i32, i32* %7, align 4
  %115 = icmp slt i32 %114, 3
  br i1 %115, label %116, label %130

116:                                              ; preds = %113
  %117 = load i32, i32* %7, align 4
  %118 = sext i32 %117 to i64
  %119 = getelementptr inbounds [1000000 x %struct.anon], [1000000 x %struct.anon]* @student, i64 0, i64 %118
  %120 = getelementptr inbounds %struct.anon, %struct.anon* %119, i32 0, i32 0
  %121 = load i32, i32* %120, align 4
  %122 = load i32, i32* %7, align 4
  %123 = sext i32 %122 to i64
  %124 = getelementptr inbounds [1000000 x i32], [1000000 x i32]* %9, i64 0, i64 %123
  %125 = load i32, i32* %124, align 4
  %126 = call i32 (i8*, ...) @printf(i8* getelementptr inbounds ([7 x i8], [7 x i8]* @.str.2, i64 0, i64 0), i32 %121, i32 %125)
  br label %127

127:                                              ; preds = %116
  %128 = load i32, i32* %7, align 4
  %129 = add nsw i32 %128, 1
  store i32 %129, i32* %7, align 4
  br label %113

130:                                              ; preds = %113
  ret i32 0
}

declare dso_local i32 @__isoc99_scanf(i8*, ...) #1

; Function Attrs: noinline nounwind uwtable
define dso_local void @swap(i32* %0, i32* %1) #0 {
  %3 = alloca i32*, align 8
  %4 = alloca i32*, align 8
  %5 = alloca i32, align 4
  store i32* %0, i32** %3, align 8
  store i32* %1, i32** %4, align 8
  %6 = load i32*, i32** %3, align 8
  %7 = load i32, i32* %6, align 4
  store i32 %7, i32* %5, align 4
  %8 = load i32*, i32** %4, align 8
  %9 = load i32, i32* %8, align 4
  %10 = load i32*, i32** %3, align 8
  store i32 %9, i32* %10, align 4
  %11 = load i32, i32* %5, align 4
  %12 = load i32*, i32** %4, align 8
  store i32 %11, i32* %12, align 4
  ret void
}

declare dso_local i32 @printf(i8*, ...) #1


!llvm.module.flags = !{!0}
!llvm.ident = !{!1}

!0 = !{i32 1, !"wchar_size", i32 4}
!1 = !{!"clang version 10.0.0-4ubuntu1 "}
